target datalayout = "e-m:e-p270:32:32-p271:32:32-p272:64:64-i64:64-i128:128-f80:128-n8:16:32:64-S128"
target triple = "x86_64-pc-linux-gnu"

%struct.BitmapAndState = type { %struct.PlanState, ptr, i32 }
%struct.PlanState = type { i32, ptr, ptr, ptr, ptr, ptr, ptr, ptr, ptr, ptr, ptr, ptr, ptr, ptr, ptr, ptr, ptr, ptr, i8, ptr, ptr, ptr, ptr, ptr, i8, i8, i8, i8, i8, i8, i8, i8 }
%struct.Node = type { i32 }

@.str = private unnamed_addr constant [33 x i8] c"unrecognized result from subplan\00", align 1
@.str.1 = private unnamed_addr constant [16 x i8] c"nodeBitmapAnd.c\00", align 1
@__func__.MultiExecBitmapAnd = private unnamed_addr constant [19 x i8] c"MultiExecBitmapAnd\00", align 1
@.str.2 = private unnamed_addr constant [38 x i8] c"BitmapAnd doesn't support zero inputs\00", align 1

; Function Attrs: nounwind uwtable
define dso_local ptr @MultiExecBitmapAnd(ptr noundef %0) #0 {
  %2 = alloca ptr, align 8
  %3 = alloca ptr, align 8
  %4 = alloca i32, align 4
  %5 = alloca i32, align 4
  %6 = alloca ptr, align 8
  %7 = alloca ptr, align 8
  %8 = alloca ptr, align 8
  %9 = alloca i32, align 4
  store ptr %0, ptr %2, align 8
  call void @llvm.lifetime.start.p0(i64 8, ptr %3) #6
  call void @llvm.lifetime.start.p0(i64 4, ptr %4) #6
  call void @llvm.lifetime.start.p0(i64 4, ptr %5) #6
  call void @llvm.lifetime.start.p0(i64 8, ptr %6) #6
  store ptr null, ptr %6, align 8
  %10 = load ptr, ptr %2, align 8
  %11 = getelementptr inbounds nuw %struct.BitmapAndState, ptr %10, i32 0, i32 0
  %12 = getelementptr inbounds nuw %struct.PlanState, ptr %11, i32 0, i32 5
  %13 = load ptr, ptr %12, align 8
  %14 = icmp ne ptr %13, null
  br i1 %14, label %15, label %20

15:                                               ; preds = %1
  %16 = load ptr, ptr %2, align 8
  %17 = getelementptr inbounds nuw %struct.BitmapAndState, ptr %16, i32 0, i32 0
  %18 = getelementptr inbounds nuw %struct.PlanState, ptr %17, i32 0, i32 5
  %19 = load ptr, ptr %18, align 8
  call void @InstrStartNode(ptr noundef %19)
  br label %20

20:                                               ; preds = %15, %1
  %21 = load ptr, ptr %2, align 8
  %22 = getelementptr inbounds nuw %struct.BitmapAndState, ptr %21, i32 0, i32 1
  %23 = load ptr, ptr %22, align 8
  store ptr %23, ptr %3, align 8
  %24 = load ptr, ptr %2, align 8
  %25 = getelementptr inbounds nuw %struct.BitmapAndState, ptr %24, i32 0, i32 2
  %26 = load i32, ptr %25, align 8
  store i32 %26, ptr %4, align 4
  store i32 0, ptr %5, align 4
  br label %27

27:                                               ; preds = %74, %20
  %28 = load i32, ptr %5, align 4
  %29 = load i32, ptr %4, align 4
  %30 = icmp slt i32 %28, %29
  br i1 %30, label %31, label %77

31:                                               ; preds = %27
  call void @llvm.lifetime.start.p0(i64 8, ptr %7) #6
  %32 = load ptr, ptr %3, align 8
  %33 = load i32, ptr %5, align 4
  %34 = sext i32 %33 to i64
  %35 = getelementptr inbounds ptr, ptr %32, i64 %34
  %36 = load ptr, ptr %35, align 8
  store ptr %36, ptr %7, align 8
  call void @llvm.lifetime.start.p0(i64 8, ptr %8) #6
  %37 = load ptr, ptr %7, align 8
  %38 = call ptr @MultiExecProcNode(ptr noundef %37)
  store ptr %38, ptr %8, align 8
  %39 = load ptr, ptr %8, align 8
  %40 = icmp ne ptr %39, null
  br i1 %40, label %41, label %46

41:                                               ; preds = %31
  %42 = load ptr, ptr %8, align 8
  %43 = getelementptr inbounds nuw %struct.Node, ptr %42, i32 0, i32 0
  %44 = load i32, ptr %43, align 4
  %45 = icmp eq i32 %44, 477
  br i1 %45, label %57, label %46

46:                                               ; preds = %41, %31
  br label %47

47:                                               ; preds = %46
  br i1 true, label %48, label %50

48:                                               ; preds = %47
  %49 = call zeroext i1 @errstart_cold(i32 noundef 21, ptr noundef null) #7
  br i1 %49, label %52, label %54

50:                                               ; preds = %47
  %51 = call zeroext i1 @errstart(i32 noundef 21, ptr noundef null)
  br i1 %51, label %52, label %54

52:                                               ; preds = %50, %48
  %53 = call i32 (ptr, ...) @errmsg_internal(ptr noundef @.str)
  call void @errfinish(ptr noundef @.str.1, i32 noundef 138, ptr noundef @__func__.MultiExecBitmapAnd)
  br label %54

54:                                               ; preds = %52, %50, %48
  unreachable

55:                                               ; No predecessors!
  br label %56

56:                                               ; preds = %55
  br label %57

57:                                               ; preds = %56, %41
  %58 = load ptr, ptr %6, align 8
  %59 = icmp eq ptr %58, null
  br i1 %59, label %60, label %62

60:                                               ; preds = %57
  %61 = load ptr, ptr %8, align 8
  store ptr %61, ptr %6, align 8
  br label %66

62:                                               ; preds = %57
  %63 = load ptr, ptr %6, align 8
  %64 = load ptr, ptr %8, align 8
  call void @tbm_intersect(ptr noundef %63, ptr noundef %64)
  %65 = load ptr, ptr %8, align 8
  call void @tbm_free(ptr noundef %65)
  br label %66

66:                                               ; preds = %62, %60
  %67 = load ptr, ptr %6, align 8
  %68 = call zeroext i1 @tbm_is_empty(ptr noundef %67)
  br i1 %68, label %69, label %70

69:                                               ; preds = %66
  store i32 2, ptr %9, align 4
  br label %71

70:                                               ; preds = %66
  store i32 0, ptr %9, align 4
  br label %71

71:                                               ; preds = %70, %69
  call void @llvm.lifetime.end.p0(i64 8, ptr %8) #6
  call void @llvm.lifetime.end.p0(i64 8, ptr %7) #6
  %72 = load i32, ptr %9, align 4
  switch i32 %72, label %104 [
    i32 0, label %73
    i32 2, label %77
  ]

73:                                               ; preds = %71
  br label %74

74:                                               ; preds = %73
  %75 = load i32, ptr %5, align 4
  %76 = add i32 %75, 1
  store i32 %76, ptr %5, align 4
  br label %27, !llvm.loop !6

77:                                               ; preds = %71, %27
  %78 = load ptr, ptr %6, align 8
  %79 = icmp eq ptr %78, null
  br i1 %79, label %80, label %91

80:                                               ; preds = %77
  br label %81

81:                                               ; preds = %80
  br i1 true, label %82, label %84

82:                                               ; preds = %81
  %83 = call zeroext i1 @errstart_cold(i32 noundef 21, ptr noundef null) #7
  br i1 %83, label %86, label %88

84:                                               ; preds = %81
  %85 = call zeroext i1 @errstart(i32 noundef 21, ptr noundef null)
  br i1 %85, label %86, label %88

86:                                               ; preds = %84, %82
  %87 = call i32 (ptr, ...) @errmsg_internal(ptr noundef @.str.2)
  call void @errfinish(ptr noundef @.str.1, i32 noundef 160, ptr noundef @__func__.MultiExecBitmapAnd)
  br label %88

88:                                               ; preds = %86, %84, %82
  unreachable

89:                                               ; No predecessors!
  br label %90

90:                                               ; preds = %89
  br label %91

91:                                               ; preds = %90, %77
  %92 = load ptr, ptr %2, align 8
  %93 = getelementptr inbounds nuw %struct.BitmapAndState, ptr %92, i32 0, i32 0
  %94 = getelementptr inbounds nuw %struct.PlanState, ptr %93, i32 0, i32 5
  %95 = load ptr, ptr %94, align 8
  %96 = icmp ne ptr %95, null
  br i1 %96, label %97, label %102

97:                                               ; preds = %91
  %98 = load ptr, ptr %2, align 8
  %99 = getelementptr inbounds nuw %struct.BitmapAndState, ptr %98, i32 0, i32 0
  %100 = getelementptr inbounds nuw %struct.PlanState, ptr %99, i32 0, i32 5
  %101 = load ptr, ptr %100, align 8
  call void @InstrStopNode(ptr noundef %101, double noundef 0.000000e+00)
  br label %102

102:                                              ; preds = %97, %91
  %103 = load ptr, ptr %6, align 8
  store i32 1, ptr %9, align 4
  call void @llvm.lifetime.end.p0(i64 8, ptr %6) #6
  call void @llvm.lifetime.end.p0(i64 4, ptr %5) #6
  call void @llvm.lifetime.end.p0(i64 4, ptr %4) #6
  call void @llvm.lifetime.end.p0(i64 8, ptr %3) #6
  ret ptr %103

104:                                              ; preds = %71
  unreachable
}