; Function Attrs: nounwind uwtable
define dso_local nonnull ptr @MultiExecBitmapAnd(ptr noundef readonly captures(none) %0) local_unnamed_addr #0 {
  %2 = getelementptr inbounds nuw i8, ptr %0, i64 40
  %3 = load ptr, ptr %2, align 8
  %.not = icmp eq ptr %3, null
  br i1 %.not, label %5, label %4

4:                                                ; preds = %1
  tail call void @InstrStartNode(ptr noundef nonnull %3) #5
  br label %5

5:                                                ; preds = %4, %1
  %6 = getelementptr inbounds nuw i8, ptr %0, i64 200
  %7 = load ptr, ptr %6, align 8
  %8 = getelementptr inbounds nuw i8, ptr %0, i64 208
  %9 = load i32, ptr %8, align 8
  %10 = icmp sgt i32 %9, 0
  br i1 %10, label %.lr.ph.preheader, label %25

.lr.ph.preheader:                                 ; preds = %5
  %wide.trip.count = zext nneg i32 %9 to i64
  br label %.lr.ph

.lr.ph:                                           ; preds = %23, %.lr.ph.preheader
  %indvars.iv = phi i64 [ 0, %.lr.ph.preheader ], [ %indvars.iv.next, %23 ]
  %.02333 = phi ptr [ null, %.lr.ph.preheader ], [ %.2, %23 ]
  %11 = getelementptr inbounds nuw ptr, ptr %7, i64 %indvars.iv
  %12 = load ptr, ptr %11, align 8
  %13 = tail call ptr @MultiExecProcNode(ptr noundef %12) #5
  %.not27 = icmp eq ptr %13, null
  br i1 %.not27, label %17, label %14

14:                                               ; preds = %.lr.ph
  %15 = load i32, ptr %13, align 4
  %16 = icmp eq i32 %15, 477
  br i1 %16, label %20, label %17

17:                                               ; preds = %14, %.lr.ph
  %18 = tail call zeroext i1 @errstart_cold(i32 noundef 21, ptr noundef null) #6
  tail call void @llvm.assume(i1 %18)
  %19 = tail call i32 (ptr, ...) @errmsg_internal(ptr noundef nonnull @.str) #5
  tail call void @errfinish(ptr noundef nonnull @.str.1, i32 noundef 138, ptr noundef nonnull @__func__.MultiExecBitmapAnd) #5
  unreachable

20:                                               ; preds = %14
  %21 = icmp eq ptr %.02333, null
  br i1 %21, label %23, label %22

22:                                               ; preds = %20
  tail call void @tbm_intersect(ptr noundef nonnull %.02333, ptr noundef nonnull %13) #5
  tail call void @tbm_free(ptr noundef nonnull %13) #5
  br label %23

23:                                               ; preds = %20, %22
  %.2 = phi ptr [ %.02333, %22 ], [ %13, %20 ]
  %24 = tail call zeroext i1 @tbm_is_empty(ptr noundef nonnull %.2) #5
  %indvars.iv.next = add nuw nsw i64 %indvars.iv, 1
  %exitcond.not = icmp eq i64 %indvars.iv.next, %wide.trip.count
  %or.cond = select i1 %24, i1 true, i1 %exitcond.not
  br i1 %or.cond, label %.thread, label %.lr.ph, !llvm.loop !4

25:                                               ; preds = %5
  %26 = tail call zeroext i1 @errstart_cold(i32 noundef 21, ptr noundef null) #6
  tail call void @llvm.assume(i1 %26)
  %27 = tail call i32 (ptr, ...) @errmsg_internal(ptr noundef nonnull @.str.2) #5
  tail call void @errfinish(ptr noundef nonnull @.str.1, i32 noundef 160, ptr noundef nonnull @__func__.MultiExecBitmapAnd) #5
  unreachable

.thread:                                          ; preds = %23
  %28 = load ptr, ptr %2, align 8
  %.not28 = icmp eq ptr %28, null
  br i1 %.not28, label %30, label %29

29:                                               ; preds = %.thread
  tail call void @InstrStopNode(ptr noundef nonnull %28, double noundef 0.000000e+00) #5
  br label %30

30:                                               ; preds = %29, %.thread
  ret ptr %.2
}